target datalayout = "e-m:e-p270:32:32-p271:32:32-p272:64:64-i64:64-i128:128-f80:128-n8:16:32:64-S128"
target triple = "x86_64-pc-linux-gnu"

%struct._arg = type { ptr, ptr, ptr, i32, i32, i32, i32 }

@PyExc_ValueError = external global ptr, align 8
@.str.62 = private unnamed_addr constant [32 x i8] c"field 'arg' is required for arg\00", align 1

; Function Attrs: nounwind uwtable
define hidden ptr @_PyAST_arg(ptr noundef %0, ptr noundef %1, ptr noundef %2, i32 noundef %3, i32 noundef %4, i32 noundef %5, i32 noundef %6, ptr noundef %7) #0 {
  %9 = alloca ptr, align 8
  %10 = alloca ptr, align 8
  %11 = alloca ptr, align 8
  %12 = alloca ptr, align 8
  %13 = alloca i32, align 4
  %14 = alloca i32, align 4
  %15 = alloca i32, align 4
  %16 = alloca i32, align 4
  %17 = alloca ptr, align 8
  %18 = alloca ptr, align 8
  %19 = alloca i32, align 4
  store ptr %0, ptr %10, align 8, !tbaa !13
  store ptr %1, ptr %11, align 8, !tbaa !34
  store ptr %2, ptr %12, align 8, !tbaa !13
  store i32 %3, ptr %13, align 4, !tbaa !38
  store i32 %4, ptr %14, align 4, !tbaa !38
  store i32 %5, ptr %15, align 4, !tbaa !38
  store i32 %6, ptr %16, align 4, !tbaa !38
  store ptr %7, ptr %17, align 8, !tbaa !24
  call void @llvm.lifetime.start.p0(i64 8, ptr %18) #8
  %20 = load ptr, ptr %10, align 8, !tbaa !13
  %21 = icmp ne ptr %20, null
  br i1 %21, label %24, label %22

22:                                               ; preds = %8
  %23 = load ptr, ptr @PyExc_ValueError, align 8, !tbaa !13
  call void @PyErr_SetString(ptr noundef %23, ptr noundef @.str.62)
  store ptr null, ptr %9, align 8
  store i32 1, ptr %19, align 4
  br label %53

24:                                               ; preds = %8
  %25 = load ptr, ptr %17, align 8, !tbaa !24
  %26 = call ptr @_PyArena_Malloc(ptr noundef %25, i64 noundef 40)
  store ptr %26, ptr %18, align 8, !tbaa !68
  %27 = load ptr, ptr %18, align 8, !tbaa !68
  %28 = icmp ne ptr %27, null
  br i1 %28, label %30, label %29

29:                                               ; preds = %24
  store ptr null, ptr %9, align 8
  store i32 1, ptr %19, align 4
  br label %53

30:                                               ; preds = %24
  %31 = load ptr, ptr %10, align 8, !tbaa !13
  %32 = load ptr, ptr %18, align 8, !tbaa !68
  %33 = getelementptr inbounds nuw %struct._arg, ptr %32, i32 0, i32 0
  store ptr %31, ptr %33, align 8, !tbaa !78
  %34 = load ptr, ptr %11, align 8, !tbaa !34
  %35 = load ptr, ptr %18, align 8, !tbaa !68
  %36 = getelementptr inbounds nuw %struct._arg, ptr %35, i32 0, i32 1
  store ptr %34, ptr %36, align 8, !tbaa !80
  %37 = load ptr, ptr %12, align 8, !tbaa !13
  %38 = load ptr, ptr %18, align 8, !tbaa !68
  %39 = getelementptr inbounds nuw %struct._arg, ptr %38, i32 0, i32 2
  store ptr %37, ptr %39, align 8, !tbaa !81
  %40 = load i32, ptr %13, align 4, !tbaa !38
  %41 = load ptr, ptr %18, align 8, !tbaa !68
  %42 = getelementptr inbounds nuw %struct._arg, ptr %41, i32 0, i32 3
  store i32 %40, ptr %42, align 8, !tbaa !82
  %43 = load i32, ptr %14, align 4, !tbaa !38
  %44 = load ptr, ptr %18, align 8, !tbaa !68
  %45 = getelementptr inbounds nuw %struct._arg, ptr %44, i32 0, i32 4
  store i32 %43, ptr %45, align 4, !tbaa !83
  %46 = load i32, ptr %15, align 4, !tbaa !38
  %47 = load ptr, ptr %18, align 8, !tbaa !68
  %48 = getelementptr inbounds nuw %struct._arg, ptr %47, i32 0, i32 5
  store i32 %46, ptr %48, align 8, !tbaa !84
  %49 = load i32, ptr %16, align 4, !tbaa !38
  %50 = load ptr, ptr %18, align 8, !tbaa !68
  %51 = getelementptr inbounds nuw %struct._arg, ptr %50, i32 0, i32 6
  store i32 %49, ptr %51, align 4, !tbaa !85
  %52 = load ptr, ptr %18, align 8, !tbaa !68
  store ptr %52, ptr %9, align 8
  store i32 1, ptr %19, align 4
  br label %53

53:                                               ; preds = %30, %29, %22
  call void @llvm.lifetime.end.p0(i64 8, ptr %18) #8
  %54 = load ptr, ptr %9, align 8
  ret ptr %54
}