; Function Attrs: nounwind uwtable
define hidden ptr @_PyAST_arg(ptr noundef %0, ptr noundef %1, ptr noundef %2, i32 noundef %3, i32 noundef %4, i32 noundef %5, i32 noundef %6, ptr noundef %7) local_unnamed_addr #0 {
  %.not = icmp eq ptr %0, null
  br i1 %.not, label %9, label %11

9:                                                ; preds = %8
  %10 = load ptr, ptr @PyExc_ValueError, align 8, !tbaa !4
  tail call void @PyErr_SetString(ptr noundef %10, ptr noundef nonnull @.str.62) #8
  br label %20

11:                                               ; preds = %8
  %12 = tail call ptr @_PyArena_Malloc(ptr noundef %7, i64 noundef 40) #8
  %.not20 = icmp eq ptr %12, null
  br i1 %.not20, label %20, label %13

13:                                               ; preds = %11
  store ptr %0, ptr %12, align 8, !tbaa !53
  %14 = getelementptr inbounds nuw i8, ptr %12, i64 8
  store ptr %1, ptr %14, align 8, !tbaa !55
  %15 = getelementptr inbounds nuw i8, ptr %12, i64 16
  store ptr %2, ptr %15, align 8, !tbaa !56
  %16 = getelementptr inbounds nuw i8, ptr %12, i64 24
  store i32 %3, ptr %16, align 8, !tbaa !57
  %17 = getelementptr inbounds nuw i8, ptr %12, i64 28
  store i32 %4, ptr %17, align 4, !tbaa !58
  %18 = getelementptr inbounds nuw i8, ptr %12, i64 32
  store i32 %5, ptr %18, align 8, !tbaa !59
  %19 = getelementptr inbounds nuw i8, ptr %12, i64 36
  store i32 %6, ptr %19, align 4, !tbaa !60
  br label %20

20:                                               ; preds = %11, %13, %9
  %.0 = phi ptr [ %12, %13 ], [ null, %9 ], [ null, %11 ]
  ret ptr %.0
}